target datalayout = "e-m:e-p270:32:32-p271:32:32-p272:64:64-i64:64-i128:128-f80:128-n8:16:32:64-S128"
target triple = "x86_64-unknown-linux-gnu"

%struct.CPUArchState = type { [32 x i64], [32 x i64], [512 x i64], i64, i64, i64, i64, i64, i8, i64, i64, i64, [32 x i64], i64, %struct.float_status, i64, i64, i64, i64, i64, i64, i32, i32, i32, i32, i32, i64, i64, i64, i8, i64, i64, i64, i64, i64, i8, i8, i64, i64, i64, i64, i64, i64, i64, i64, i64, i64, i64, i64, i64, i64, i64, [64 x i8], [64 x i8], i64, i64, i64, i64, i64, i64, i64, i64, i64, i64, i64, i64, i64, i64, i64, i64, i64, [64 x i8], i64, i64, i64, i64, i64, i64, i64, i64, i64, i64, i64, i64, i64, i64, i64, i64, i64, i64, i64, i8, i8, i64, i64, i64, [32 x %struct.PMUCTRState], [32 x i64], [32 x i64], i64, i64, i64, i64, %struct.pmp_table_t, i64, i64, [2 x i64], [2 x i64], [2 x i64], [2 x ptr], [2 x ptr], [2 x ptr], i64, i8, ptr, ptr, [4 x ptr], [4 x ptr], i8, i64, i64, i64, i64, i64, i64, i64, i64, [4 x i64], [4 x i64], [4 x i64], i64, i64, i64, i64, ptr, ptr, i8, i64, i64, [8 x i8] }
%struct.float_status = type { i16, i8, i8, i8, i8, i8, i8, i8, i8, i8, i8, i8 }
%struct.PMUCTRState = type { i64, i64, i64, i64, i8, i64 }
%struct.pmp_table_t = type { [16 x %struct.pmp_entry_t], [16 x %struct.pmp_addr_t], i32 }
%struct.pmp_entry_t = type { i64, i8 }
%struct.pmp_addr_t = type { i64, i64 }

; Function Attrs: nounwind sspstrong uwtable
define dso_local void @tselect_csr_write(ptr noundef %env, i64 noundef %val) #0 {
entry:
  %env.addr = alloca ptr, align 8
  %val.addr = alloca i64, align 8
  store ptr %env, ptr %env.addr, align 8
  store i64 %val, ptr %val.addr, align 8
  %0 = load i64, ptr %val.addr, align 8
  %cmp = icmp ult i64 %0, 2
  br i1 %cmp, label %if.then, label %if.end

if.then:                                          ; preds = %entry
  %1 = load i64, ptr %val.addr, align 8
  %2 = load ptr, ptr %env.addr, align 8
  %trigger_cur = getelementptr inbounds %struct.CPUArchState, ptr %2, i32 0, i32 105
  store i64 %1, ptr %trigger_cur, align 16
  br label %if.end

if.end:                                           ; preds = %if.then, %entry
  ret void
}