; Function Attrs: mustprogress nofree norecurse nosync nounwind sspstrong willreturn memory(argmem: write) uwtable
define dso_local void @tselect_csr_write(ptr noundef writeonly captures(none) %env, i64 noundef %val) local_unnamed_addr #2 {
entry:
  %cmp = icmp ult i64 %val, 2
  br i1 %cmp, label %if.then, label %if.end

if.then:                                          ; preds = %entry
  %trigger_cur = getelementptr inbounds nuw i8, ptr %env, i64 8352
  store i64 %val, ptr %trigger_cur, align 16
  br label %if.end

if.end:                                           ; preds = %if.then, %entry
  ret void
}